target datalayout = "e-m:e-p270:32:32-p271:32:32-p272:64:64-i64:64-i128:128-f80:128-n8:16:32:64-S128"
target triple = "x86_64-pc-linux-gnu"

%struct.loopargs_st = type { ptr, ptr, ptr, ptr, ptr, ptr, ptr, [16 x i8], i64, i64, i64, [7 x ptr], [7 x ptr], [7 x ptr], [7 x ptr], [2 x ptr], [2 x ptr], [22 x ptr], [22 x ptr], [24 x ptr], [2 x ptr], [2 x ptr], [1 x ptr], [1 x ptr], [1 x ptr], ptr, ptr, [24 x i64], [5 x ptr], ptr, ptr, ptr, ptr, [111 x ptr], [111 x ptr], [111 x ptr], [111 x i64], [111 x i64], [111 x ptr], [111 x ptr], [111 x ptr], [111 x ptr], [111 x ptr], [111 x ptr], [111 x i64], [111 x i64], [111 x ptr] }

@testmode = internal global i32 0, align 4
@lengths = internal global ptr @lengths_list, align 8
@testnum = internal global i32 0, align 4
@run = internal global i32 0, align 4

; Function Attrs: nounwind uwtable
define internal i32 @EVP_Cipher_loop(ptr noundef %0) #0 {
  %2 = alloca i32, align 4
  %3 = alloca ptr, align 8
  %4 = alloca ptr, align 8
  %5 = alloca ptr, align 8
  %6 = alloca i32, align 4
  %7 = alloca i32, align 4
  store ptr %0, ptr %3, align 8, !tbaa !115
  call void @llvm.lifetime.start.p0(i64 8, ptr %4) #11
  %8 = load ptr, ptr %3, align 8, !tbaa !115
  %9 = load ptr, ptr %8, align 8, !tbaa !37
  store ptr %9, ptr %4, align 8, !tbaa !37
  call void @llvm.lifetime.start.p0(i64 8, ptr %5) #11
  %10 = load ptr, ptr %4, align 8, !tbaa !37
  %11 = getelementptr inbounds nuw %struct.loopargs_st, ptr %10, i32 0, i32 2
  %12 = load ptr, ptr %11, align 8, !tbaa !92
  store ptr %12, ptr %5, align 8, !tbaa !39
  call void @llvm.lifetime.start.p0(i64 4, ptr %6) #11
  %13 = load ptr, ptr %4, align 8, !tbaa !37
  %14 = getelementptr inbounds nuw %struct.loopargs_st, ptr %13, i32 0, i32 31
  %15 = load ptr, ptr %14, align 8, !tbaa !117
  %16 = icmp eq ptr %15, null
  br i1 %16, label %17, label %18

17:                                               ; preds = %1
  store i32 -1, ptr %2, align 4
  store i32 1, ptr %7, align 4
  br label %52

18:                                               ; preds = %1
  store i32 0, ptr %6, align 4, !tbaa !4
  br label %19

19:                                               ; preds = %47, %18
  %20 = load volatile i32, ptr @run, align 4, !tbaa !4
  %21 = icmp ne i32 %20, 0
  br i1 %21, label %22, label %28

22:                                               ; preds = %19
  %23 = load i32, ptr %6, align 4, !tbaa !4
  %24 = load i32, ptr @testmode, align 4, !tbaa !4
  %25 = icmp ne i32 %24, 0
  %26 = select i1 %25, i32 1, i32 2147483647
  %27 = icmp slt i32 %23, %26
  br label %28

28:                                               ; preds = %22, %19
  %29 = phi i1 [ false, %19 ], [ %27, %22 ]
  br i1 %29, label %30, label %50

30:                                               ; preds = %28
  %31 = load ptr, ptr %4, align 8, !tbaa !37
  %32 = getelementptr inbounds nuw %struct.loopargs_st, ptr %31, i32 0, i32 31
  %33 = load ptr, ptr %32, align 8, !tbaa !117
  %34 = load ptr, ptr %5, align 8, !tbaa !39
  %35 = load ptr, ptr %5, align 8, !tbaa !39
  %36 = load ptr, ptr @lengths, align 8, !tbaa !66
  %37 = load i32, ptr @testnum, align 4, !tbaa !4
  %38 = zext i32 %37 to i64
  %39 = getelementptr inbounds nuw i32, ptr %36, i64 %38
  %40 = load i32, ptr %39, align 4, !tbaa !4
  %41 = sext i32 %40 to i64
  %42 = trunc i64 %41 to i32
  %43 = call i32 @EVP_Cipher(ptr noundef %33, ptr noundef %34, ptr noundef %35, i32 noundef %42)
  %44 = icmp sle i32 %43, 0
  br i1 %44, label %45, label %46

45:                                               ; preds = %30
  store i32 -1, ptr %2, align 4
  store i32 1, ptr %7, align 4
  br label %52

46:                                               ; preds = %30
  br label %47

47:                                               ; preds = %46
  %48 = load i32, ptr %6, align 4, !tbaa !4
  %49 = add nsw i32 %48, 1
  store i32 %49, ptr %6, align 4, !tbaa !4
  br label %19, !llvm.loop !249

50:                                               ; preds = %28
  %51 = load i32, ptr %6, align 4, !tbaa !4
  store i32 %51, ptr %2, align 4
  store i32 1, ptr %7, align 4
  br label %52

52:                                               ; preds = %50, %45, %17
  call void @llvm.lifetime.end.p0(i64 4, ptr %6) #11
  call void @llvm.lifetime.end.p0(i64 8, ptr %5) #11
  call void @llvm.lifetime.end.p0(i64 8, ptr %4) #11
  %53 = load i32, ptr %2, align 4
  ret i32 %53
}