; Function Attrs: nounwind uwtable
define internal range(i32 -1, -2147483648) i32 @EVP_Cipher_loop(ptr noundef readonly captures(none) %0) #0 {
  %2 = load ptr, ptr %0, align 8, !tbaa !189
  %3 = getelementptr inbounds nuw i8, ptr %2, i64 16
  %4 = load ptr, ptr %3, align 8, !tbaa !53
  %5 = getelementptr inbounds nuw i8, ptr %2, i64 1216
  %6 = load ptr, ptr %5, align 8, !tbaa !78
  %7 = icmp eq ptr %6, null
  br i1 %7, label %.critedge, label %.preheader

.preheader:                                       ; preds = %1
  %8 = load volatile i32, ptr @run, align 4, !tbaa !13
  %.not10 = icmp eq i32 %8, 0
  br i1 %.not10, label %.critedge, label %.lr.ph

.lr.ph:                                           ; preds = %.preheader, %20
  %.011 = phi i32 [ %21, %20 ], [ 0, %.preheader ]
  %.b = load i1, ptr @testmode, align 4
  %9 = select i1 %.b, i32 1, i32 2147483647
  %10 = icmp samesign ult i32 %.011, %9
  br i1 %10, label %11, label %.critedge

11:                                               ; preds = %.lr.ph
  %12 = load ptr, ptr %5, align 8, !tbaa !78
  %13 = load ptr, ptr @lengths, align 8, !tbaa !26
  %14 = load i32, ptr @testnum, align 4, !tbaa !13
  %15 = zext i32 %14 to i64
  %16 = getelementptr inbounds nuw i32, ptr %13, i64 %15
  %17 = load i32, ptr %16, align 4, !tbaa !13
  %18 = tail call i32 @EVP_Cipher(ptr noundef %12, ptr noundef %4, ptr noundef %4, i32 noundef %17) #14
  %19 = icmp slt i32 %18, 1
  br i1 %19, label %.critedge, label %20

20:                                               ; preds = %11
  %21 = add nuw nsw i32 %.011, 1
  %22 = load volatile i32, ptr @run, align 4, !tbaa !13
  %.not = icmp eq i32 %22, 0
  br i1 %.not, label %.critedge, label %.lr.ph, !llvm.loop !199

.critedge:                                        ; preds = %11, %20, %.lr.ph, %.preheader, %1
  %.09 = phi i32 [ -1, %1 ], [ 0, %.preheader ], [ -1, %11 ], [ %21, %20 ], [ %.011, %.lr.ph ]
  ret i32 %.09
}